Certificate:
    Data:
        Version: 3 (0x2)
        Serial Number:
            53:56:f2:91:b0:1b:48:00
        Signature Algorithm: sha1WithRSAEncryption
        Issuer: C=ES, ST=Nation, L=Nowhere, O=monos, CN=Certification Authority Certificate
        Validity
            Not Before: Aug 21 12:45:00 2007 GMT
            Not After : Nov 29 12:45:00 2007 GMT
        Subject: C=ES, ST=Nation, L=Nowhere, O=monos, CN=mandrill
        Subject Public Key Info:
            Public Key Algorithm: rsaEncryption
            RSA Public Key: (1024 bit)
                Modulus (1024 bit):
                    00:b8:14:67:a5:0c:6c:46:dc:81:b5:c6:8c:dc:28:
                    2b:c9:14:18:c5:d9:b4:d0:11:21:57:b1:0a:cb:42:
                    f0:1d:8e:b5:e3:c6:e9:37:06:25:33:97:cf:91:d4:
                    80:6d:77:33:4e:8b:7f:07:04:31:67:d7:3a:5a:49:
                    7c:2e:6c:39:17:a2:09:a7:96:2d:97:65:a0:e1:2c:
                    09:7a:71:10:7f:3b:ad:08:9c:47:a9:29:5f:6a:bb:
                    c4:be:6c:73:34:09:ba:fb:9d:bd:00:4b:20:99:46:
                    0b:d0:f6:2f:0a:61:37:2c:d6:d5:e4:dc:84:ed:74:
                    d9:af:de:8d:43:15:c0:44:fd
                Exponent: 65537 (0x10001)
        X509v3 extensions:
            X509v3 Subject Key Identifier: 
                E6:79:F8:5E:F4:F0:3F:07:D4:AE:80:F5:0D:1B:7F:D4:1C:22:D7:30
            X509v3 Authority Key Identifier: 
                keyid:93:A5:C5:A1:22:01:B7:D6:C4:55:AF:0E:E4:C1:71:C9:21:45:13:14
                DirName:/C=ES/ST=Nation/L=Nowhere/O=monos/CN=Certification Authority Certificate
                serial:53:56:F2:91:B0:1B:47:FE

            X509v3 Basic Constraints: 
                CA:TRUE
    Signature Algorithm: sha1WithRSAEncryption
        88:6a:25:f4:27:8e:b8:c1:50:c1:67:32:84:f6:08:2b:15:3b:
        09:78:07:f2:59:df:55:61:e5:0d:dc:78:87:e4:db:a6:56:6d:
        cd:64:99:d7:16:bd:78:ac:7b:e1:a9:d5:af:cd:ca:7c:dd:55:
        c6:58:c2:7c:b4:99:54:27:79:c5:e3:0b:56:2d:75:72:74:78:
        7d:da:21:b9:a8:07:25:66:e5:63:e9:15:19:69:14:c9:91:a7:
        c7:34:3b:d9:0f:91:be:d5:14:20:fd:49:8d:b5:eb:b1:d1:f2:
        b6:ec:04:44:cc:e5:64:7b:aa:69:ff:4f:f2:27:f1:df:c0:63:
        bd:b9
-----BEGIN CERTIFICATE-----
MIIDETCCAnqgAwIBAgIIU1bykbAbSAAwDQYJKoZIhvcNAQEFBQAwbjELMAkGA1UE
BhMCRVMxDzANBgNVBAgTBk5hdGlvbjEQMA4GA1UEBxMHTm93aGVyZTEOMAwGA1UE
ChMFbW9ub3MxLDAqBgNVBAMTI0NlcnRpZmljYXRpb24gQXV0aG9yaXR5IENlcnRp
ZmljYXRlMB4XDTA3MDgyMTEyNDUwMFoXDTA3MTEyOTEyNDUwMFowUzELMAkGA1UE
BhMCRVMxDzANBgNVBAgTBk5hdGlvbjEQMA4GA1UEBxMHTm93aGVyZTEOMAwGA1UE
ChMFbW9ub3MxETAPBgNVBAMTCG1hbmRyaWxsMIGfMA0GCSqGSIb3DQEBAQUAA4GN
ADCBiQKBgQC4FGelDGxG3IG1xozcKCvJFBjF2bTQESFXsQrLQvAdjrXjxuk3BiUz
l8+R1IBtdzNOi38HBDFn1zpaSXwubDkXogmnli2XZaDhLAl6cRB/O60InEepKV9q
u8S+bHM0Cbr7nb0ASyCZRgvQ9i8KYTcs1tXk3ITtdNmv3o1DFcBE/QIDAQABo4HS
MIHPMB0GA1UdDgQWBBTmefhe9PA/B9SugPUNG3/UHCLXMDCBnwYDVR0jBIGXMIGU
gBSTpcWhIgG31sRVrw7kwXHJIUUTFKFypHAwbjELMAkGA1UEBhMCRVMxDzANBgNV
BAgTBk5hdGlvbjEQMA4GA1UEBxMHTm93aGVyZTEOMAwGA1UEChMFbW9ub3MxLDAq
BgNVBAMTI0NlcnRpZmljYXRpb24gQXV0aG9yaXR5IENlcnRpZmljYXRlgghTVvKR
sBtH/jAMBgNVHRMEBTADAQH/MA0GCSqGSIb3DQEBBQUAA4GBAIhqJfQnjrjBUMFn
MoT2CCsVOwl4B/JZ31Vh5Q3ceIfk26ZWbc1kmdcWvXise+Gp1a/NynzdVcZYwny0
mVQnecXjC1YtdXJ0eH3aIbmoByVm5WPpFRlpFMmRp8c0O9kPkb7VFCD9SY2167HR
8rbsBETM5WR7qmn/T/In8d/AY725
-----END CERTIFICATE-----
