Certificate:
    Data:
        Version: 3 (0x2)
        Serial Number:
            d3:af:b7:9f:e8:84:03:73
        Signature Algorithm: sha1WithRSAEncryption
        Issuer: O=ebox-services.com, CN=Certification Authority
        Validity
            Not Before: Jan 30 11:33:50 2008 GMT
            Not After : Jan 17 11:33:50 2018 GMT
        Subject: O=ebox-services.com, CN=warp_bleeding-edge
        Subject Public Key Info:
            Public Key Algorithm: rsaEncryption
            RSA Public Key: (1024 bit)
                Modulus (1024 bit):
                    00:bd:c6:fb:36:7f:c5:59:8a:6d:2c:48:7f:be:ee:
                    9d:79:74:c5:e0:73:03:3a:ff:e5:67:a6:a0:66:3e:
                    6d:23:47:1f:fd:11:78:38:a9:53:83:88:46:8b:79:
                    20:39:35:28:4d:7f:82:7d:4e:c3:d0:a2:eb:42:7c:
                    a7:5e:e3:8d:3b:f5:a4:92:d4:e5:ba:fe:fc:f2:1f:
                    e1:e3:3b:9b:03:9f:77:d1:43:b6:46:ee:1f:0b:90:
                    2f:c9:a9:d5:08:b5:0f:e7:32:3d:c9:e2:1d:b1:cf:
                    79:f2:ae:f1:b1:e0:a6:8e:58:3f:ff:c6:cd:d2:cf:
                    dd:d6:67:a5:76:7a:84:09:11
                Exponent: 65537 (0x10001)
        X509v3 extensions:
            X509v3 Basic Constraints: 
                CA:FALSE
            Netscape Comment: 
                OpenSSL Generated Certificate
            X509v3 Subject Key Identifier: 
                81:D0:8F:33:67:BE:9C:E2:CC:22:05:87:61:AA:D0:42:C4:F3:21:B8
            X509v3 Authority Key Identifier: 
                keyid:E0:49:D8:60:A1:69:D3:1F:BD:2D:F6:FE:AA:5F:74:66:02:E2:B7:E8

    Signature Algorithm: sha1WithRSAEncryption
        a0:10:51:31:1b:27:69:e1:58:6a:0c:f7:33:93:b3:e9:4c:ea:
        af:40:c7:f6:21:63:6e:df:34:c9:05:1e:49:22:09:26:2d:2c:
        d2:60:49:bc:98:f4:21:7d:45:26:a0:1e:fc:c4:41:47:cd:87:
        55:52:3f:5c:c9:44:e0:39:8e:96:e8:8a:4d:ee:71:89:2d:ff:
        37:fa:d4:b5:e6:fc:79:a3:c8:81:5d:70:59:13:7f:8b:85:01:
        8b:c3:fd:ee:ce:f5:ef:cb:9e:81:b0:49:f4:29:1d:38:94:9e:
        a1:5b:44:73:62:ae:0e:ed:de:60:d8:75:1f:9a:e9:3e:65:dc:
        00:3e
-----BEGIN CERTIFICATE-----
MIICcDCCAdmgAwIBAgIJANOvt5/ohANzMA0GCSqGSIb3DQEBBQUAMD4xGjAYBgNV
BAoTEWVib3gtc2VydmljZXMuY29tMSAwHgYDVQQDExdDZXJ0aWZpY2F0aW9uIEF1
dGhvcml0eTAeFw0wODAxMzAxMTMzNTBaFw0xODAxMTcxMTMzNTBaMDkxGjAYBgNV
BAoTEWVib3gtc2VydmljZXMuY29tMRswGQYDVQQDFBJ3YXJwX2JsZWVkaW5nLWVk
Z2UwgZ8wDQYJKoZIhvcNAQEBBQADgY0AMIGJAoGBAL3G+zZ/xVmKbSxIf77unXl0
xeBzAzr/5WemoGY+bSNHH/0ReDipU4OIRot5IDk1KE1/gn1Ow9Ci60J8p17jjTv1
pJLU5br+/PIf4eM7mwOfd9FDtkbuHwuQL8mp1Qi1D+cyPcniHbHPefKu8bHgpo5Y
P//GzdLP3dZnpXZ6hAkRAgMBAAGjezB5MAkGA1UdEwQCMAAwLAYJYIZIAYb4QgEN
BB8WHU9wZW5TU0wgR2VuZXJhdGVkIENlcnRpZmljYXRlMB0GA1UdDgQWBBSB0I8z
Z76c4swiBYdhqtBCxPMhuDAfBgNVHSMEGDAWgBTgSdhgoWnTH70t9v6qX3RmAuK3
6DANBgkqhkiG9w0BAQUFAAOBgQCgEFExGydp4VhqDPczk7PpTOqvQMf2IWNu3zTJ
BR5JIgkmLSzSYEm8mPQhfUUmoB78xEFHzYdVUj9cyUTgOY6W6IpN7nGJLf83+tS1
5vx5o8iBXXBZE3+LhQGLw/3uzvXvy56BsEn0KR04lJ6hW0RzYq4O7d5g2HUfmuk+
ZdwAPg==
-----END CERTIFICATE-----
